{
   A Pythia Screwup: Number 1
   Memcheck:Cond
   fun:index
   fun:expand_dynamic_string_token
   fun:_dl_map_object
   fun:map_doit
   fun:_dl_catch_error
   fun:do_preload
   fun:dl_main
   fun:_dl_sysdep_start
   fun:_dl_start
   obj:/lib64/ld-2.12.so
   obj:*
   obj:*
}
{
   A Pythia Screwup: Number 2
   Memcheck:Cond
   fun:index
   fun:expand_dynamic_string_token
   fun:_dl_map_object
   fun:map_doit
   fun:_dl_catch_error
   fun:do_preload
   fun:dl_main
   fun:_dl_sysdep_start
   fun:_dl_start
   obj:/lib64/ld-2.12.so
   obj:*
   obj:*
}
{
   A Pythia Screwup: Number 3
   Memcheck:Cond
   fun:_dl_relocate_object
   fun:dl_main
   fun:_dl_sysdep_start
   fun:_dl_start
   obj:/lib64/ld-2.12.so
   obj:*
   obj:*
   obj:*
   obj:*
   obj:*
   obj:*
   obj:*
}
{
   A Pythia Screwup: Number 4
   Memcheck:Cond
   fun:_dl_relocate_object
   fun:dl_main
   fun:_dl_sysdep_start
   fun:_dl_start
   obj:/lib64/ld-2.12.so
   obj:*
   obj:*
   obj:*
   obj:*
   obj:*
   obj:*
   obj:*
}
{
   A Pythia Screwup: Number 5
   Memcheck:Cond
   fun:_dl_relocate_object
   fun:dl_main
   fun:_dl_sysdep_start
   fun:_dl_start
   obj:/lib64/ld-2.12.so
   obj:*
   obj:*
   obj:*
   obj:*
   obj:*
   obj:*
   obj:*
}
{
   A Pythia Screwup: Number 6
   Memcheck:Cond
   fun:_dl_relocate_object
   fun:dl_main
   fun:_dl_sysdep_start
   fun:_dl_start
   obj:/lib64/ld-2.12.so
   obj:*
   obj:*
   obj:*
   obj:*
   obj:*
   obj:*
   obj:*
}
{
   A Pythia Screwup: Number 7
   Memcheck:Cond
   fun:__strlen_sse42
   fun:_ZStlsISt11char_traitsIcEERSt13basic_ostreamIcT_ES5_PKc
   fun:_ZN7Pythia86Pythia6bannerERSo
   fun:_ZN7Pythia86PythiaC1ESsb
   fun:main
}
{
   A Pythia Screwup: Number 8
   Memcheck:Cond
   fun:_ZSt16__ostream_insertIcSt11char_traitsIcEERSt13basic_ostreamIT_T0_ES6_PKS3_l
   fun:_ZStlsISt11char_traitsIcEERSt13basic_ostreamIcT_ES5_PKc
   fun:_ZN7Pythia86Pythia6bannerERSo
   fun:_ZN7Pythia86PythiaC1ESsb
   fun:main
}
{
   A Pythia Screwup: Number 9
   Memcheck:Cond
   fun:fwrite
   fun:_ZSt16__ostream_insertIcSt11char_traitsIcEERSt13basic_ostreamIT_T0_ES6_PKS3_l
   fun:_ZStlsISt11char_traitsIcEERSt13basic_ostreamIcT_ES5_PKc
   fun:_ZN7Pythia86Pythia6bannerERSo
   fun:_ZN7Pythia86PythiaC1ESsb
   fun:main
}
{
   A Pythia Screwup: Number 10
   Memcheck:Cond
   fun:_IO_file_xsputn@@GLIBC_2.2.5
   fun:fwrite
   fun:_ZSt16__ostream_insertIcSt11char_traitsIcEERSt13basic_ostreamIT_T0_ES6_PKS3_l
   fun:_ZStlsISt11char_traitsIcEERSt13basic_ostreamIcT_ES5_PKc
   fun:_ZN7Pythia86Pythia6bannerERSo
   fun:_ZN7Pythia86PythiaC1ESsb
   fun:main
}
{
   A Pythia Screwup: Number 11 
   Memcheck:Cond
   fun:_IO_file_xsputn@@GLIBC_2.2.5
   fun:fwrite
   fun:_ZSt16__ostream_insertIcSt11char_traitsIcEERSt13basic_ostreamIT_T0_ES6_PKS3_l
   fun:_ZStlsISt11char_traitsIcEERSt13basic_ostreamIcT_ES5_PKc
   fun:_ZN7Pythia86Pythia6bannerERSo
   fun:_ZN7Pythia86PythiaC1ESsb
   fun:main
}
{
   A Pythia Screwup: Number 12 
   Memcheck:Cond
   fun:_IO_file_xsputn@@GLIBC_2.2.5
   fun:fwrite
   fun:_ZSt16__ostream_insertIcSt11char_traitsIcEERSt13basic_ostreamIT_T0_ES6_PKS3_l
   fun:_ZStlsISt11char_traitsIcEERSt13basic_ostreamIcT_ES5_PKc
   fun:_ZN7Pythia86Pythia6bannerERSo
   fun:_ZN7Pythia86PythiaC1ESsb
   fun:main
}
{
   A Pythia Screwup: Number 13 
   Memcheck:Value8
   fun:_IO_file_xsputn@@GLIBC_2.2.5
   fun:fwrite
   fun:_ZSt16__ostream_insertIcSt11char_traitsIcEERSt13basic_ostreamIT_T0_ES6_PKS3_l
   fun:_ZStlsISt11char_traitsIcEERSt13basic_ostreamIcT_ES5_PKc
   fun:_ZN7Pythia86Pythia6bannerERSo
   fun:_ZN7Pythia86PythiaC1ESsb
   fun:main
}
{
   A Pythia Screwup: Number 14
   Memcheck:Cond
   fun:_IO_file_xsputn@@GLIBC_2.2.5
   fun:fwrite
   fun:_ZSt16__ostream_insertIcSt11char_traitsIcEERSt13basic_ostreamIT_T0_ES6_PKS3_l
   fun:_ZStlsISt11char_traitsIcEERSt13basic_ostreamIcT_ES5_PKc
   fun:_ZN7Pythia86Pythia6bannerERSo
   fun:_ZN7Pythia86PythiaC1ESsb
   fun:main
}
{
   A Pythia Screwup: Number 15 
   Memcheck:Value8
   fun:_IO_file_xsputn@@GLIBC_2.2.5
   fun:fwrite
   fun:_ZSt16__ostream_insertIcSt11char_traitsIcEERSt13basic_ostreamIT_T0_ES6_PKS3_l
   fun:_ZStlsISt11char_traitsIcEERSt13basic_ostreamIcT_ES5_PKc
   fun:_ZN7Pythia86Pythia6bannerERSo
   fun:_ZN7Pythia86PythiaC1ESsb
   fun:main
}
{
   A Pythia Screwup: Number 16
   Memcheck:Cond
   fun:_IO_file_xsputn@@GLIBC_2.2.5
   fun:fwrite
   fun:_ZSt16__ostream_insertIcSt11char_traitsIcEERSt13basic_ostreamIT_T0_ES6_PKS3_l
   fun:_ZStlsISt11char_traitsIcEERSt13basic_ostreamIcT_ES5_PKc
   fun:_ZN7Pythia86Pythia6bannerERSo
   fun:_ZN7Pythia86PythiaC1ESsb
   fun:main
}
{
   A Pythia Screwup: Number 17
   Memcheck:Cond
   fun:_IO_file_xsputn@@GLIBC_2.2.5
   fun:fwrite
   fun:_ZSt16__ostream_insertIcSt11char_traitsIcEERSt13basic_ostreamIT_T0_ES6_PKS3_l
   fun:_ZStlsISt11char_traitsIcEERSt13basic_ostreamIcT_ES5_PKc
   fun:_ZN7Pythia86Pythia6bannerERSo
   fun:_ZN7Pythia86PythiaC1ESsb
   fun:main
}
{
   A Pythia Screwup: Number 18
   Memcheck:Cond
   fun:_IO_file_xsputn@@GLIBC_2.2.5
   fun:fwrite
   fun:_ZSt16__ostream_insertIcSt11char_traitsIcEERSt13basic_ostreamIT_T0_ES6_PKS3_l
   fun:_ZStlsISt11char_traitsIcEERSt13basic_ostreamIcT_ES5_PKc
   fun:_ZN7Pythia86Pythia6bannerERSo
   fun:_ZN7Pythia86PythiaC1ESsb
   fun:main
}
{
   A Pythia Screwup: Number 19
   Memcheck:Cond
   fun:_IO_file_xsputn@@GLIBC_2.2.5
   fun:fwrite
   fun:_ZSt16__ostream_insertIcSt11char_traitsIcEERSt13basic_ostreamIT_T0_ES6_PKS3_l
   fun:_ZStlsISt11char_traitsIcEERSt13basic_ostreamIcT_ES5_PKc
   fun:_ZN7Pythia86Pythia6bannerERSo
   fun:_ZN7Pythia86PythiaC1ESsb
   fun:main
}
{
   A Pythia Screwup: Number 19
   Memcheck:Cond
   fun:fwrite
   fun:_ZSt16__ostream_insertIcSt11char_traitsIcEERSt13basic_ostreamIT_T0_ES6_PKS3_l
   fun:_ZStlsISt11char_traitsIcEERSt13basic_ostreamIcT_ES5_PKc
   fun:_ZN7Pythia86Pythia6bannerERSo
   fun:_ZN7Pythia86PythiaC1ESsb
   fun:main
}
{
   A Pythia Screwup: Number 20
   Memcheck:Cond
   fun:_ZSt16__ostream_insertIcSt11char_traitsIcEERSt13basic_ostreamIT_T0_ES6_PKS3_l
   fun:_ZStlsISt11char_traitsIcEERSt13basic_ostreamIcT_ES5_PKc
   fun:_ZN7Pythia86Pythia6bannerERSo
   fun:_ZN7Pythia86PythiaC1ESsb
   fun:main
}
{
   A Pythia Screwup: Number 21
   Memcheck:Value8
   fun:_IO_file_xsputn@@GLIBC_2.2.5
   fun:fwrite
   fun:_ZSt16__ostream_insertIcSt11char_traitsIcEERSt13basic_ostreamIT_T0_ES6_PKS3_l
   fun:_ZStlsISt11char_traitsIcEERSt13basic_ostreamIcT_ES5_PKc
   fun:_ZN7Pythia86Pythia6bannerERSo
   fun:_ZN7Pythia86PythiaC1ESsb
   fun:main
}
{
   A Pythia Screwup: Number 22
   Memcheck:Cond
   fun:fwrite
   fun:_ZSt16__ostream_insertIcSt11char_traitsIcEERSt13basic_ostreamIT_T0_ES6_PKS3_l
   fun:_ZStlsISt11char_traitsIcEERSt13basic_ostreamIcT_ES5_PKc
   fun:_ZN7Pythia86Pythia6bannerERSo
   fun:_ZN7Pythia86PythiaC1ESsb
   fun:main
}
{
   A Pythia Screwup: Number 23
   Memcheck:Cond
   fun:__strlen_sse42
   fun:_ZStlsISt11char_traitsIcEERSt13basic_ostreamIcT_ES5_PKc
   fun:_ZN7Pythia86Pythia6bannerERSo
   fun:_ZN7Pythia86PythiaC1ESsb
   fun:main
}
{
   A Pythia Screwup: Number 24
   Memcheck:Cond
   fun:_ZSt16__ostream_insertIcSt11char_traitsIcEERSt13basic_ostreamIT_T0_ES6_PKS3_l
   fun:_ZStlsISt11char_traitsIcEERSt13basic_ostreamIcT_ES5_PKc
   fun:_ZN7Pythia86Pythia6bannerERSo
   fun:_ZN7Pythia86PythiaC1ESsb
   fun:main
}
{
   A Pythia Screwup: Number 25
   Memcheck:Cond
   fun:fwrite
   fun:_ZSt16__ostream_insertIcSt11char_traitsIcEERSt13basic_ostreamIT_T0_ES6_PKS3_l
   fun:_ZStlsISt11char_traitsIcEERSt13basic_ostreamIcT_ES5_PKc
   fun:_ZN7Pythia86Pythia6bannerERSo
   fun:_ZN7Pythia86PythiaC1ESsb
   fun:main
}
{
   A Pythia Screwup: Number 26
   Memcheck:Cond
   fun:fwrite
   fun:_ZSt16__ostream_insertIcSt11char_traitsIcEERSt13basic_ostreamIT_T0_ES6_PKS3_l
   fun:_ZStlsISt11char_traitsIcEERSt13basic_ostreamIcT_ES5_PKc
   fun:_ZN7Pythia86Pythia6bannerERSo
   fun:_ZN7Pythia86PythiaC1ESsb
   fun:main
}
{
   A Pythia Screwup: Number 27
   Memcheck:Cond
   fun:_ZSt16__ostream_insertIcSt11char_traitsIcEERSt13basic_ostreamIT_T0_ES6_PKS3_l
   fun:_ZStlsISt11char_traitsIcEERSt13basic_ostreamIcT_ES5_PKc
   fun:_ZN7Pythia86Pythia6bannerERSo
   fun:_ZN7Pythia86PythiaC1ESsb
   fun:main
}
{
   A Pythia Screwup: Number 28
   Memcheck:Cond
   fun:_IO_do_write@@GLIBC_2.2.5
   fun:_IO_file_xsputn@@GLIBC_2.2.5
   fun:fwrite
   fun:_ZSt16__ostream_insertIcSt11char_traitsIcEERSt13basic_ostreamIT_T0_ES6_PKS3_l
   fun:_ZStlsISt11char_traitsIcEERSt13basic_ostreamIcT_ES5_PKc
   fun:_ZN7Pythia86Pythia6bannerERSo
   fun:_ZN7Pythia86PythiaC1ESsb
   fun:main
}
{
   A Pythia Screwup: Number 29
   Memcheck:Cond
   fun:_IO_file_write@@GLIBC_2.2.5
   fun:_IO_do_write@@GLIBC_2.2.5
   fun:_IO_file_xsputn@@GLIBC_2.2.5
   fun:fwrite
   fun:_ZSt16__ostream_insertIcSt11char_traitsIcEERSt13basic_ostreamIT_T0_ES6_PKS3_l
   fun:_ZStlsISt11char_traitsIcEERSt13basic_ostreamIcT_ES5_PKc
   fun:_ZN7Pythia86Pythia6bannerERSo
   fun:_ZN7Pythia86PythiaC1ESsb
   fun:main
}
{
   A Pythia Screwup: Number 30
   Memcheck:Param
   write(count)
   fun:__write_nocancel
   fun:_IO_file_write@@GLIBC_2.2.5
   fun:_IO_do_write@@GLIBC_2.2.5
   fun:_IO_file_xsputn@@GLIBC_2.2.5
   fun:fwrite
   fun:_ZSt16__ostream_insertIcSt11char_traitsIcEERSt13basic_ostreamIT_T0_ES6_PKS3_l
   fun:_ZStlsISt11char_traitsIcEERSt13basic_ostreamIcT_ES5_PKc
   fun:_ZN7Pythia86Pythia6bannerERSo
   fun:_ZN7Pythia86PythiaC1ESsb
   fun:main
}
{
   A Pythia Screwup: Number 31
   Memcheck:Cond
   fun:_IO_file_write@@GLIBC_2.2.5
   fun:_IO_do_write@@GLIBC_2.2.5
   fun:_IO_file_xsputn@@GLIBC_2.2.5
   fun:fwrite
   fun:_ZSt16__ostream_insertIcSt11char_traitsIcEERSt13basic_ostreamIT_T0_ES6_PKS3_l
   fun:_ZStlsISt11char_traitsIcEERSt13basic_ostreamIcT_ES5_PKc
   fun:_ZN7Pythia86Pythia6bannerERSo
   fun:_ZN7Pythia86PythiaC1ESsb
   fun:main
}
{
   A Pythia Screwup: Number 32
   Memcheck:Cond
   fun:_IO_do_write@@GLIBC_2.2.5
   fun:_IO_file_xsputn@@GLIBC_2.2.5
   fun:fwrite
   fun:_ZSt16__ostream_insertIcSt11char_traitsIcEERSt13basic_ostreamIT_T0_ES6_PKS3_l
   fun:_ZStlsISt11char_traitsIcEERSt13basic_ostreamIcT_ES5_PKc
   fun:_ZN7Pythia86Pythia6bannerERSo
   fun:_ZN7Pythia86PythiaC1ESsb
   fun:main
}
{
   A Pythia Screwup: Number 33
   Memcheck:Cond
   fun:_IO_do_write@@GLIBC_2.2.5
   fun:_IO_file_xsputn@@GLIBC_2.2.5
   fun:fwrite
   fun:_ZSt16__ostream_insertIcSt11char_traitsIcEERSt13basic_ostreamIT_T0_ES6_PKS3_l
   fun:_ZStlsISt11char_traitsIcEERSt13basic_ostreamIcT_ES5_PKc
   fun:_ZN7Pythia86Pythia6bannerERSo
   fun:_ZN7Pythia86PythiaC1ESsb
   fun:main
}
